ccopy_reg
_reconstructor
p0
(cmixtape.tica
tICA
p1
c__builtin__
object
p2
Ntp3
Rp4
(dp5
S'_outer_0_to_TminusTau'
p6
NsS'_components_'
p7
NsS'_sum_0_to_TminusTau'
p8
NsS'weighted_transform'
p9
I00
sS'_sum_0_to_T'
p10
NsS'_eigenvectors_'
p11
NsS'_sum_tau_to_T'
p12
NsS'_initialized'
p13
I00
sS'n_observations_'
p14
NsS'_outer_offset_to_T'
p15
NsS'_eigenvalues'
p16
NsS'lag_time'
p17
I1
sS'n_components'
p18
NsS'n_features'
p19
NsS'_is_dirty'
p20
I01
sS'n_sequences_'
p21
NsS'_outer_0_to_T_lagged'
p22
NsS'gamma'
p23
F0.05
sb.